
BuckConverter.elf:     file format elf32-avr

Sections:
Idx Name          Size      VMA       LMA       File off  Algn
  0 .text         000001cc  00000000  00000000  00000094  2**1
                  CONTENTS, ALLOC, LOAD, READONLY, CODE
  1 .data         00000000  00800040  000001cc  00000260  2**0
                  CONTENTS, ALLOC, LOAD, DATA
  2 .bss          00000006  00800040  00800040  00000260  2**0
                  ALLOC
  3 .stab         000006cc  00000000  00000000  00000260  2**2
                  CONTENTS, READONLY, DEBUGGING
  4 .stabstr      00000097  00000000  00000000  0000092c  2**0
                  CONTENTS, READONLY, DEBUGGING
  5 .comment      0000002f  00000000  00000000  000009c3  2**0
                  CONTENTS, READONLY

Disassembly of section .text:

00000000 <__vectors>:
   0:	0a c0       	rjmp	.+20     	; 0x16 <__ctors_end>
   2:	19 c0       	rjmp	.+50     	; 0x36 <__bad_interrupt>
   4:	18 c0       	rjmp	.+48     	; 0x36 <__bad_interrupt>
   6:	17 c0       	rjmp	.+46     	; 0x36 <__bad_interrupt>
   8:	16 c0       	rjmp	.+44     	; 0x36 <__bad_interrupt>
   a:	15 c0       	rjmp	.+42     	; 0x36 <__bad_interrupt>
   c:	14 c0       	rjmp	.+40     	; 0x36 <__bad_interrupt>
   e:	13 c0       	rjmp	.+38     	; 0x36 <__bad_interrupt>
  10:	12 c0       	rjmp	.+36     	; 0x36 <__bad_interrupt>
  12:	11 c0       	rjmp	.+34     	; 0x36 <__bad_interrupt>
  14:	41 c0       	rjmp	.+130    	; 0x98 <__vector_10>

00000016 <__ctors_end>:
  16:	11 27       	eor	r17, r17
  18:	1f bf       	out	0x3f, r17	; 63
  1a:	cf e5       	ldi	r28, 0x5F	; 95
  1c:	d0 e0       	ldi	r29, 0x00	; 0
  1e:	de bf       	out	0x3e, r29	; 62
  20:	cd bf       	out	0x3d, r28	; 61

00000022 <__do_clear_bss>:
  22:	20 e0       	ldi	r18, 0x00	; 0
  24:	a0 e4       	ldi	r26, 0x40	; 64
  26:	b0 e0       	ldi	r27, 0x00	; 0
  28:	01 c0       	rjmp	.+2      	; 0x2c <.do_clear_bss_start>

0000002a <.do_clear_bss_loop>:
  2a:	1d 93       	st	X+, r17

0000002c <.do_clear_bss_start>:
  2c:	a6 34       	cpi	r26, 0x46	; 70
  2e:	b2 07       	cpc	r27, r18
  30:	e1 f7       	brne	.-8      	; 0x2a <.do_clear_bss_loop>
  32:	bf d0       	rcall	.+382    	; 0x1b2 <main>
  34:	c9 c0       	rjmp	.+402    	; 0x1c8 <_exit>

00000036 <__bad_interrupt>:
  36:	e4 cf       	rjmp	.-56     	; 0x0 <__vectors>

00000038 <setup>:
  38:	48 ed       	ldi	r20, 0xD8	; 216
  3a:	4c bf       	out	0x3c, r20	; 60
  3c:	16 bf       	out	0x36, r17	; 54
  3e:	78 94       	sei
  40:	49 e4       	ldi	r20, 0x49	; 73
  42:	4d bd       	out	0x2d, r20	; 45
  44:	41 ea       	ldi	r20, 0xA1	; 161
  46:	4e bd       	out	0x2e, r20	; 46
  48:	4c b5       	in	r20, 0x2c	; 44
  4a:	4f 73       	andi	r20, 0x3F	; 63
  4c:	4c bd       	out	0x2c, r20	; 44
  4e:	41 e0       	ldi	r20, 0x01	; 1
  50:	41 b9       	out	0x01, r20	; 1
  52:	43 b9       	out	0x03, r20	; 3
  54:	12 b9       	out	0x02, r17	; 2
  56:	15 bd       	out	0x25, r17	; 37
  58:	14 bd       	out	0x24, r17	; 36
  5a:	45 b7       	in	r20, 0x35	; 53
  5c:	4d 7f       	andi	r20, 0xFD	; 253
  5e:	45 bf       	out	0x35, r20	; 53
  60:	d8 98       	cbi	0x1b, 0	; 27
  62:	d9 9a       	sbi	0x1b, 1	; 27
  64:	4c b3       	in	r20, 0x1c	; 28
  66:	48 7f       	andi	r20, 0xF8	; 248
  68:	4c bb       	out	0x1c, r20	; 28
  6a:	ba 9a       	sbi	0x17, 2	; 23
  6c:	4f ea       	ldi	r20, 0xAF	; 175
  6e:	4d bb       	out	0x1d, r20	; 29
  70:	ee 9a       	sbi	0x1d, 6	; 29
  72:	08 95       	ret

00000074 <SetLow>:
  74:	e5 e4       	ldi	r30, 0x45	; 69
  76:	f0 e0       	ldi	r31, 0x00	; 0
  78:	4e e1       	ldi	r20, 0x1E	; 30
  7a:	40 83       	st	Z, r20
  7c:	e4 e4       	ldi	r30, 0x44	; 68
  7e:	f0 e0       	ldi	r31, 0x00	; 0
  80:	48 e2       	ldi	r20, 0x28	; 40
  82:	40 83       	st	Z, r20
  84:	08 95       	ret

00000086 <SetHigh>:
  86:	e5 e4       	ldi	r30, 0x45	; 69
  88:	f0 e0       	ldi	r31, 0x00	; 0
  8a:	4d e7       	ldi	r20, 0x7D	; 125
  8c:	40 83       	st	Z, r20
  8e:	e4 e4       	ldi	r30, 0x44	; 68
  90:	f0 e0       	ldi	r31, 0x00	; 0
  92:	47 e8       	ldi	r20, 0x87	; 135
  94:	40 83       	st	Z, r20
  96:	08 95       	ret

00000098 <__vector_10>:
  98:	1f 93       	push	r17
  9a:	0f 93       	push	r16
  9c:	0f b7       	in	r16, 0x3f	; 63
  9e:	0f 93       	push	r16
  a0:	10 e0       	ldi	r17, 0x00	; 0
  a2:	4f 93       	push	r20
  a4:	5f 93       	push	r21
  a6:	6f 93       	push	r22
  a8:	7f 93       	push	r23
  aa:	8f 93       	push	r24
  ac:	9f 93       	push	r25
  ae:	af 93       	push	r26
  b0:	bf 93       	push	r27
  b2:	ef 93       	push	r30
  b4:	ff 93       	push	r31
  b6:	e2 e4       	ldi	r30, 0x42	; 66
  b8:	f0 e0       	ldi	r31, 0x00	; 0
  ba:	40 81       	ld	r20, Z
  bc:	44 30       	cpi	r20, 0x04	; 4
  be:	08 f4       	brcc	.+2      	; 0xc2 <__vector_10+0x2a>
  c0:	66 c0       	rjmp	.+204    	; 0x18e <__vector_10+0xf6>
  c2:	01 9b       	sbis	0x00, 1	; 0
  c4:	20 c0       	rjmp	.+64     	; 0x106 <__vector_10+0x6e>
  c6:	e1 e4       	ldi	r30, 0x41	; 65
  c8:	f0 e0       	ldi	r31, 0x00	; 0
  ca:	40 81       	ld	r20, Z
  cc:	4f 5f       	subi	r20, 0xFF	; 255
  ce:	40 83       	st	Z, r20
  d0:	40 81       	ld	r20, Z
  d2:	45 36       	cpi	r20, 0x65	; 101
  d4:	30 f0       	brcs	.+12     	; 0xe2 <__vector_10+0x4a>
  d6:	a0 e4       	ldi	r26, 0x40	; 64
  d8:	b0 e0       	ldi	r27, 0x00	; 0
  da:	4c 91       	ld	r20, X
  dc:	4f 5f       	subi	r20, 0xFF	; 255
  de:	4c 93       	st	X, r20
  e0:	10 83       	st	Z, r17
  e2:	e0 e4       	ldi	r30, 0x40	; 64
  e4:	f0 e0       	ldi	r31, 0x00	; 0
  e6:	40 81       	ld	r20, Z
  e8:	44 30       	cpi	r20, 0x04	; 4
  ea:	49 f0       	breq	.+18     	; 0xfe <__vector_10+0x66>
  ec:	18 f4       	brcc	.+6      	; 0xf4 <__vector_10+0x5c>
  ee:	42 30       	cpi	r20, 0x02	; 2
  f0:	41 f4       	brne	.+16     	; 0x102 <__vector_10+0x6a>
  f2:	05 c0       	rjmp	.+10     	; 0xfe <__vector_10+0x66>
  f4:	46 30       	cpi	r20, 0x06	; 6
  f6:	19 f0       	breq	.+6      	; 0xfe <__vector_10+0x66>
  f8:	44 36       	cpi	r20, 0x64	; 100
  fa:	19 f4       	brne	.+6      	; 0x102 <__vector_10+0x6a>
  fc:	0a c0       	rjmp	.+20     	; 0x112 <__vector_10+0x7a>
  fe:	ba df       	rcall	.-140    	; 0x74 <SetLow>
 100:	09 c0       	rjmp	.+18     	; 0x114 <__vector_10+0x7c>
 102:	c1 df       	rcall	.-126    	; 0x86 <SetHigh>
 104:	07 c0       	rjmp	.+14     	; 0x114 <__vector_10+0x7c>
 106:	b6 df       	rcall	.-148    	; 0x74 <SetLow>
 108:	e0 e4       	ldi	r30, 0x40	; 64
 10a:	f0 e0       	ldi	r31, 0x00	; 0
 10c:	10 83       	st	Z, r17
 10e:	e1 e4       	ldi	r30, 0x41	; 65
 110:	f0 e0       	ldi	r31, 0x00	; 0
 112:	10 83       	st	Z, r17
 114:	49 b3       	in	r20, 0x19	; 25
 116:	42 3e       	cpi	r20, 0xE2	; 226
 118:	60 f0       	brcs	.+24     	; 0x132 <__vector_10+0x9a>
 11a:	46 b5       	in	r20, 0x26	; 38
 11c:	57 b5       	in	r21, 0x27	; 39
 11e:	45 50       	subi	r20, 0x05	; 5
 120:	51 0b       	sbc	r21, r17
 122:	57 bd       	out	0x27, r21	; 39
 124:	46 bd       	out	0x26, r20	; 38
 126:	e3 e4       	ldi	r30, 0x43	; 67
 128:	f0 e0       	ldi	r31, 0x00	; 0
 12a:	40 81       	ld	r20, Z
 12c:	4f 5f       	subi	r20, 0xFF	; 255
 12e:	40 83       	st	Z, r20
 130:	2a c0       	rjmp	.+84     	; 0x186 <__vector_10+0xee>
 132:	59 b3       	in	r21, 0x19	; 25
 134:	e5 e4       	ldi	r30, 0x45	; 69
 136:	f0 e0       	ldi	r31, 0x00	; 0
 138:	40 81       	ld	r20, Z
 13a:	54 17       	cp	r21, r20
 13c:	a0 f4       	brcc	.+40     	; 0x166 <__vector_10+0xce>
 13e:	40 81       	ld	r20, Z
 140:	69 b3       	in	r22, 0x19	; 25
 142:	50 e0       	ldi	r21, 0x00	; 0
 144:	46 1b       	sub	r20, r22
 146:	51 0b       	sbc	r21, r17
 148:	4f 31       	cpi	r20, 0x1F	; 31
 14a:	51 07       	cpc	r21, r17
 14c:	2c f0       	brlt	.+10     	; 0x158 <__vector_10+0xc0>
 14e:	46 b5       	in	r20, 0x26	; 38
 150:	57 b5       	in	r21, 0x27	; 39
 152:	46 5f       	subi	r20, 0xF6	; 246
 154:	5f 4f       	sbci	r21, 0xFF	; 255
 156:	04 c0       	rjmp	.+8      	; 0x160 <__vector_10+0xc8>
 158:	46 b5       	in	r20, 0x26	; 38
 15a:	57 b5       	in	r21, 0x27	; 39
 15c:	4f 5f       	subi	r20, 0xFF	; 255
 15e:	5f 4f       	sbci	r21, 0xFF	; 255
 160:	57 bd       	out	0x27, r21	; 39
 162:	46 bd       	out	0x26, r20	; 38
 164:	0d c0       	rjmp	.+26     	; 0x180 <__vector_10+0xe8>
 166:	59 b3       	in	r21, 0x19	; 25
 168:	e4 e4       	ldi	r30, 0x44	; 68
 16a:	f0 e0       	ldi	r31, 0x00	; 0
 16c:	40 81       	ld	r20, Z
 16e:	45 17       	cp	r20, r21
 170:	38 f4       	brcc	.+14     	; 0x180 <__vector_10+0xe8>
 172:	46 b5       	in	r20, 0x26	; 38
 174:	57 b5       	in	r21, 0x27	; 39
 176:	41 50       	subi	r20, 0x01	; 1
 178:	51 0b       	sbc	r21, r17
 17a:	57 bd       	out	0x27, r21	; 39
 17c:	46 bd       	out	0x26, r20	; 38
 17e:	03 c0       	rjmp	.+6      	; 0x186 <__vector_10+0xee>
 180:	e3 e4       	ldi	r30, 0x43	; 67
 182:	f0 e0       	ldi	r31, 0x00	; 0
 184:	10 83       	st	Z, r17
 186:	e2 e4       	ldi	r30, 0x42	; 66
 188:	f0 e0       	ldi	r31, 0x00	; 0
 18a:	10 83       	st	Z, r17
 18c:	03 c0       	rjmp	.+6      	; 0x194 <__vector_10+0xfc>
 18e:	40 81       	ld	r20, Z
 190:	4f 5f       	subi	r20, 0xFF	; 255
 192:	40 83       	st	Z, r20
 194:	ff 91       	pop	r31
 196:	ef 91       	pop	r30
 198:	bf 91       	pop	r27
 19a:	af 91       	pop	r26
 19c:	9f 91       	pop	r25
 19e:	8f 91       	pop	r24
 1a0:	7f 91       	pop	r23
 1a2:	6f 91       	pop	r22
 1a4:	5f 91       	pop	r21
 1a6:	4f 91       	pop	r20
 1a8:	0f 91       	pop	r16
 1aa:	0f bf       	out	0x3f, r16	; 63
 1ac:	0f 91       	pop	r16
 1ae:	1f 91       	pop	r17
 1b0:	18 95       	reti

000001b2 <main>:
 1b2:	42 df       	rcall	.-380    	; 0x38 <setup>
 1b4:	e3 e4       	ldi	r30, 0x43	; 67
 1b6:	f0 e0       	ldi	r31, 0x00	; 0
 1b8:	40 81       	ld	r20, Z
 1ba:	42 33       	cpi	r20, 0x32	; 50
 1bc:	e8 f3       	brcs	.-6      	; 0x1b8 <main+0x6>
 1be:	17 bd       	out	0x27, r17	; 39
 1c0:	16 bd       	out	0x26, r17	; 38
 1c2:	80 e0       	ldi	r24, 0x00	; 0
 1c4:	90 e0       	ldi	r25, 0x00	; 0
 1c6:	08 95       	ret

000001c8 <_exit>:
 1c8:	f8 94       	cli

000001ca <__stop_program>:
 1ca:	ff cf       	rjmp	.-2      	; 0x1ca <__stop_program>
